; Function Attrs: mustprogress nofree nounwind uwtable
define void @_ZN6Assimp15DefaultIOStream5FlushEv(ptr nocapture noundef nonnull readonly align 8 dereferenceable(56) %this) unnamed_addr #3 align 2 {
entry:
  %mFile = getelementptr inbounds i8, ptr %this, i64 8
  %0 = load ptr, ptr %mFile, align 8
  %tobool.not = icmp eq ptr %0, null
  br i1 %tobool.not, label %if.end, label %if.then

if.then:                                          ; preds = %entry
  %call = tail call i32 @fflush(ptr noundef nonnull %0)
  br label %if.end

if.end:                                           ; preds = %if.then, %entry
  ret void
}